#include <math.h>
#include <stdio.h>
#include <stdlib.h>
#include <string.h>

int main(void)
{
 int num,max=0;
 scanf("%d",&num);
 int a[num],flag[num];
 for (int i = 0; i < num; i ++)
 {
  scanf("%d",&a[i]);
  flag[i] = 1;
 }
 for (int i = 0; i < num; i ++)
 {
  for (int j = 0; j < i; j ++)
  {
   if (a[j] >= a[i])
   {
    flag[i] = flag[j] + 1 > flag[i] ? flag[j] + 1 : flag[i];
   }
  }
  if(flag[i]>max) max = flag[i];
 }
 printf("%d\n",max);
 return 0;
}